target datalayout = "e-m:e-p270:32:32-p271:32:32-p272:64:64-i64:64-i128:128-f80:128-n8:16:32:64-S128"
target triple = "x86_64-pc-linux-gnu"

%struct.archive_read = type { %struct.archive, ptr, i32, i64, i64, %struct.archive_read_client, [16 x %struct.archive_read_filter_bidder], ptr, i32, i64, i32, i32, [16 x %struct.archive_format_descriptor], ptr, ptr, ptr, %struct.anon }
%struct.archive = type { i32, i32, ptr, i32, ptr, i32, i32, ptr, %struct.archive_string, ptr, i32, i32, ptr, ptr, i64, i64, i64, i8, i64 }
%struct.archive_string = type { ptr, i64, i64 }
%struct.archive_read_client = type { ptr, ptr, ptr, ptr, ptr, ptr, i32, i32, i64, ptr }
%struct.archive_read_filter_bidder = type { ptr, ptr, ptr }
%struct.archive_format_descriptor = type { ptr, ptr, ptr, ptr, ptr, ptr, ptr, ptr, ptr, ptr, ptr }
%struct.anon = type { ptr, ptr, i32, ptr, ptr }
%struct.cab = type { i64, i64, i64, i64, i64, ptr, ptr, ptr, i64, %struct.cfheader, %struct.archive_wstring, i8, i8, i8, i8, i8, i64, ptr, i64, i32, ptr, ptr, ptr, [64 x i8], %struct.z_stream_s, i8, %struct.lzx_stream }
%struct.cfheader = type { i32, i32, i16, i16, i16, i16, i16, i8, i8, i8, i8, ptr, ptr, i32 }
%struct.archive_wstring = type { ptr, i64, i64 }
%struct.z_stream_s = type { ptr, i32, i64, ptr, i32, i64, ptr, ptr, ptr, ptr, ptr, i32, i64, i64 }
%struct.lzx_stream = type { ptr, i64, i64, ptr, i64, i64, ptr }
%struct.cffile = type { i32, i32, i64, i16, i8, %struct.archive_string }
%struct.cffolder = type { i32, i16, i16, i16, ptr, %struct.cfdata, i32, i8 }
%struct.cfdata = type { i32, i16, i16, i16, i16, i16, i16, i64, i64, ptr, i32, [4 x i8], i32, ptr }
%struct.lzx_dec = type { i32, i32, i32, ptr, i32, i32, i32, i32, i8, i8, i64, i64, i32, i32, i32, [4 x i8], i32, i32, i32, i32, ptr, %struct.lzx_br, %struct.huffman, %struct.huffman, %struct.huffman, %struct.huffman, i32, i32 }
%struct.lzx_br = type { i64, i32, i8, i8 }
%struct.huffman = type { i32, [17 x i32], ptr, i32, i32, i32, ptr }

; Function Attrs: nounwind uwtable
define internal void @lzx_huffman_free(ptr noundef %0) #0 {
  %2 = alloca ptr, align 8
  store ptr %0, ptr %2, align 8, !tbaa !217
  %3 = load ptr, ptr %2, align 8, !tbaa !217
  %4 = getelementptr inbounds nuw %struct.huffman, ptr %3, i32 0, i32 2
  %5 = load ptr, ptr %4, align 8, !tbaa !219
  call void @free(ptr noundef %5) #11
  %6 = load ptr, ptr %2, align 8, !tbaa !217
  %7 = getelementptr inbounds nuw %struct.huffman, ptr %6, i32 0, i32 6
  %8 = load ptr, ptr %7, align 8, !tbaa !221
  call void @free(ptr noundef %8) #11
  ret void
}

; Function Attrs: nounwind uwtable
define internal void @lzx_decode_free(ptr noundef %0) #0 {
  %2 = alloca ptr, align 8
  store ptr %0, ptr %2, align 8, !tbaa !180
  %3 = load ptr, ptr %2, align 8, !tbaa !180
  %4 = getelementptr inbounds nuw %struct.lzx_stream, ptr %3, i32 0, i32 6
  %5 = load ptr, ptr %4, align 8, !tbaa !182
  %6 = icmp eq ptr %5, null
  br i1 %6, label %7, label %8

7:                                                ; preds = %1
  br label %40

8:                                                ; preds = %1
  %9 = load ptr, ptr %2, align 8, !tbaa !180
  %10 = getelementptr inbounds nuw %struct.lzx_stream, ptr %9, i32 0, i32 6
  %11 = load ptr, ptr %10, align 8, !tbaa !182
  %12 = getelementptr inbounds nuw %struct.lzx_dec, ptr %11, i32 0, i32 3
  %13 = load ptr, ptr %12, align 8, !tbaa !192
  call void @free(ptr noundef %13) #11
  %14 = load ptr, ptr %2, align 8, !tbaa !180
  %15 = getelementptr inbounds nuw %struct.lzx_stream, ptr %14, i32 0, i32 6
  %16 = load ptr, ptr %15, align 8, !tbaa !182
  %17 = getelementptr inbounds nuw %struct.lzx_dec, ptr %16, i32 0, i32 20
  %18 = load ptr, ptr %17, align 8, !tbaa !193
  call void @free(ptr noundef %18) #11
  %19 = load ptr, ptr %2, align 8, !tbaa !180
  %20 = getelementptr inbounds nuw %struct.lzx_stream, ptr %19, i32 0, i32 6
  %21 = load ptr, ptr %20, align 8, !tbaa !182
  %22 = getelementptr inbounds nuw %struct.lzx_dec, ptr %21, i32 0, i32 22
  call void @lzx_huffman_free(ptr noundef %22)
  %23 = load ptr, ptr %2, align 8, !tbaa !180
  %24 = getelementptr inbounds nuw %struct.lzx_stream, ptr %23, i32 0, i32 6
  %25 = load ptr, ptr %24, align 8, !tbaa !182
  %26 = getelementptr inbounds nuw %struct.lzx_dec, ptr %25, i32 0, i32 25
  call void @lzx_huffman_free(ptr noundef %26)
  %27 = load ptr, ptr %2, align 8, !tbaa !180
  %28 = getelementptr inbounds nuw %struct.lzx_stream, ptr %27, i32 0, i32 6
  %29 = load ptr, ptr %28, align 8, !tbaa !182
  %30 = getelementptr inbounds nuw %struct.lzx_dec, ptr %29, i32 0, i32 24
  call void @lzx_huffman_free(ptr noundef %30)
  %31 = load ptr, ptr %2, align 8, !tbaa !180
  %32 = getelementptr inbounds nuw %struct.lzx_stream, ptr %31, i32 0, i32 6
  %33 = load ptr, ptr %32, align 8, !tbaa !182
  %34 = getelementptr inbounds nuw %struct.lzx_dec, ptr %33, i32 0, i32 23
  call void @lzx_huffman_free(ptr noundef %34)
  %35 = load ptr, ptr %2, align 8, !tbaa !180
  %36 = getelementptr inbounds nuw %struct.lzx_stream, ptr %35, i32 0, i32 6
  %37 = load ptr, ptr %36, align 8, !tbaa !182
  call void @free(ptr noundef %37) #11
  %38 = load ptr, ptr %2, align 8, !tbaa !180
  %39 = getelementptr inbounds nuw %struct.lzx_stream, ptr %38, i32 0, i32 6
  store ptr null, ptr %39, align 8, !tbaa !182
  br label %40

40:                                               ; preds = %8, %7
  ret void
}

; Function Attrs: nounwind uwtable
define internal i32 @archive_read_format_cab_cleanup(ptr noundef %0) #0 {
  %2 = alloca ptr, align 8
  %3 = alloca ptr, align 8
  %4 = alloca ptr, align 8
  %5 = alloca i32, align 4
  store ptr %0, ptr %2, align 8, !tbaa !9
  call void @llvm.lifetime.start.p0(i64 8, ptr %3) #11
  %6 = load ptr, ptr %2, align 8, !tbaa !9
  %7 = getelementptr inbounds nuw %struct.archive_read, ptr %6, i32 0, i32 13
  %8 = load ptr, ptr %7, align 8, !tbaa !39
  %9 = getelementptr inbounds nuw %struct.archive_format_descriptor, ptr %8, i32 0, i32 0
  %10 = load ptr, ptr %9, align 8, !tbaa !53
  store ptr %10, ptr %3, align 8, !tbaa !13
  call void @llvm.lifetime.start.p0(i64 8, ptr %4) #11
  %11 = load ptr, ptr %3, align 8, !tbaa !13
  %12 = getelementptr inbounds nuw %struct.cab, ptr %11, i32 0, i32 9
  store ptr %12, ptr %4, align 8, !tbaa !58
  call void @llvm.lifetime.start.p0(i64 4, ptr %5) #11
  %13 = load ptr, ptr %4, align 8, !tbaa !58
  %14 = getelementptr inbounds nuw %struct.cfheader, ptr %13, i32 0, i32 11
  %15 = load ptr, ptr %14, align 8, !tbaa !75
  %16 = icmp ne ptr %15, null
  br i1 %16, label %17, label %42

17:                                               ; preds = %1
  store i32 0, ptr %5, align 4, !tbaa !11
  br label %18

18:                                               ; preds = %35, %17
  %19 = load i32, ptr %5, align 4, !tbaa !11
  %20 = load ptr, ptr %4, align 8, !tbaa !58
  %21 = getelementptr inbounds nuw %struct.cfheader, ptr %20, i32 0, i32 2
  %22 = load i16, ptr %21, align 8, !tbaa !76
  %23 = zext i16 %22 to i32
  %24 = icmp slt i32 %19, %23
  br i1 %24, label %25, label %38

25:                                               ; preds = %18
  %26 = load ptr, ptr %4, align 8, !tbaa !58
  %27 = getelementptr inbounds nuw %struct.cfheader, ptr %26, i32 0, i32 11
  %28 = load ptr, ptr %27, align 8, !tbaa !75
  %29 = load i32, ptr %5, align 4, !tbaa !11
  %30 = sext i32 %29 to i64
  %31 = getelementptr inbounds %struct.cffolder, ptr %28, i64 %30
  %32 = getelementptr inbounds nuw %struct.cffolder, ptr %31, i32 0, i32 5
  %33 = getelementptr inbounds nuw %struct.cfdata, ptr %32, i32 0, i32 9
  %34 = load ptr, ptr %33, align 8, !tbaa !102
  call void @free(ptr noundef %34) #11
  br label %35

35:                                               ; preds = %25
  %36 = load i32, ptr %5, align 4, !tbaa !11
  %37 = add nsw i32 %36, 1
  store i32 %37, ptr %5, align 4, !tbaa !11
  br label %18, !llvm.loop !103

38:                                               ; preds = %18
  %39 = load ptr, ptr %4, align 8, !tbaa !58
  %40 = getelementptr inbounds nuw %struct.cfheader, ptr %39, i32 0, i32 11
  %41 = load ptr, ptr %40, align 8, !tbaa !75
  call void @free(ptr noundef %41) #11
  br label %42

42:                                               ; preds = %38, %1
  %43 = load ptr, ptr %4, align 8, !tbaa !58
  %44 = getelementptr inbounds nuw %struct.cfheader, ptr %43, i32 0, i32 12
  %45 = load ptr, ptr %44, align 8, !tbaa !63
  %46 = icmp ne ptr %45, null
  br i1 %46, label %47, label %71

47:                                               ; preds = %42
  store i32 0, ptr %5, align 4, !tbaa !11
  br label %48

48:                                               ; preds = %64, %47
  %49 = load i32, ptr %5, align 4, !tbaa !11
  %50 = load ptr, ptr %3, align 8, !tbaa !13
  %51 = getelementptr inbounds nuw %struct.cab, ptr %50, i32 0, i32 9
  %52 = getelementptr inbounds nuw %struct.cfheader, ptr %51, i32 0, i32 3
  %53 = load i16, ptr %52, align 2, !tbaa !104
  %54 = zext i16 %53 to i32
  %55 = icmp slt i32 %49, %54
  br i1 %55, label %56, label %67

56:                                               ; preds = %48
  %57 = load ptr, ptr %4, align 8, !tbaa !58
  %58 = getelementptr inbounds nuw %struct.cfheader, ptr %57, i32 0, i32 12
  %59 = load ptr, ptr %58, align 8, !tbaa !63
  %60 = load i32, ptr %5, align 4, !tbaa !11
  %61 = sext i32 %60 to i64
  %62 = getelementptr inbounds %struct.cffile, ptr %59, i64 %61
  %63 = getelementptr inbounds nuw %struct.cffile, ptr %62, i32 0, i32 5
  call void @archive_string_free(ptr noundef %63)
  br label %64

64:                                               ; preds = %56
  %65 = load i32, ptr %5, align 4, !tbaa !11
  %66 = add nsw i32 %65, 1
  store i32 %66, ptr %5, align 4, !tbaa !11
  br label %48, !llvm.loop !105

67:                                               ; preds = %48
  %68 = load ptr, ptr %4, align 8, !tbaa !58
  %69 = getelementptr inbounds nuw %struct.cfheader, ptr %68, i32 0, i32 12
  %70 = load ptr, ptr %69, align 8, !tbaa !63
  call void @free(ptr noundef %70) #11
  br label %71

71:                                               ; preds = %67, %42
  %72 = load ptr, ptr %3, align 8, !tbaa !13
  %73 = getelementptr inbounds nuw %struct.cab, ptr %72, i32 0, i32 25
  %74 = load i8, ptr %73, align 8, !tbaa !106
  %75 = icmp ne i8 %74, 0
  br i1 %75, label %76, label %80

76:                                               ; preds = %71
  %77 = load ptr, ptr %3, align 8, !tbaa !13
  %78 = getelementptr inbounds nuw %struct.cab, ptr %77, i32 0, i32 24
  %79 = call i32 @cm_zlib_inflateEnd(ptr noundef %78)
  br label %80

80:                                               ; preds = %76, %71
  %81 = load ptr, ptr %3, align 8, !tbaa !13
  %82 = getelementptr inbounds nuw %struct.cab, ptr %81, i32 0, i32 26
  call void @lzx_decode_free(ptr noundef %82)
  %83 = load ptr, ptr %3, align 8, !tbaa !13
  %84 = getelementptr inbounds nuw %struct.cab, ptr %83, i32 0, i32 10
  call void @archive_wstring_free(ptr noundef %84)
  %85 = load ptr, ptr %3, align 8, !tbaa !13
  %86 = getelementptr inbounds nuw %struct.cab, ptr %85, i32 0, i32 17
  %87 = load ptr, ptr %86, align 8, !tbaa !107
  call void @free(ptr noundef %87) #11
  %88 = load ptr, ptr %3, align 8, !tbaa !13
  call void @free(ptr noundef %88) #11
  %89 = load ptr, ptr %2, align 8, !tbaa !9
  %90 = getelementptr inbounds nuw %struct.archive_read, ptr %89, i32 0, i32 13
  %91 = load ptr, ptr %90, align 8, !tbaa !39
  %92 = getelementptr inbounds nuw %struct.archive_format_descriptor, ptr %91, i32 0, i32 0
  store ptr null, ptr %92, align 8, !tbaa !53
  call void @llvm.lifetime.end.p0(i64 4, ptr %5) #11
  call void @llvm.lifetime.end.p0(i64 8, ptr %4) #11
  call void @llvm.lifetime.end.p0(i64 8, ptr %3) #11
  ret i32 0
}