; Function Attrs: nounwind uwtable
define internal noundef i32 @archive_read_format_cab_cleanup(ptr noundef readonly captures(none) %0) #0 {
  %2 = getelementptr inbounds nuw i8, ptr %0, i64 2072
  %3 = load ptr, ptr %2, align 8, !tbaa !11
  %4 = load ptr, ptr %3, align 8, !tbaa !29
  %5 = getelementptr inbounds nuw i8, ptr %4, i64 96
  %6 = load ptr, ptr %5, align 8, !tbaa !61
  %.not = icmp eq ptr %6, null
  br i1 %.not, label %16, label %.preheader24

.preheader24:                                     ; preds = %1
  %7 = getelementptr inbounds nuw i8, ptr %4, i64 80
  %8 = load i16, ptr %7, align 8, !tbaa !53
  %.not29 = icmp eq i16 %8, 0
  br i1 %.not29, label %._crit_edge, label %.lr.ph

.lr.ph:                                           ; preds = %.preheader24, %.lr.ph
  %indvars.iv = phi i64 [ %indvars.iv.next, %.lr.ph ], [ 0, %.preheader24 ]
  %9 = load ptr, ptr %5, align 8, !tbaa !61
  %10 = getelementptr inbounds nuw %struct.cffolder, ptr %9, i64 %indvars.iv, i32 5, i32 9
  %11 = load ptr, ptr %10, align 8, !tbaa !107
  tail call void @free(ptr noundef %11) #18
  %indvars.iv.next = add nuw nsw i64 %indvars.iv, 1
  %12 = load i16, ptr %7, align 8, !tbaa !53
  %13 = zext i16 %12 to i64
  %14 = icmp samesign ult i64 %indvars.iv.next, %13
  br i1 %14, label %.lr.ph, label %._crit_edge.loopexit, !llvm.loop !108

._crit_edge.loopexit:                             ; preds = %.lr.ph
  %.pre = load ptr, ptr %5, align 8, !tbaa !61
  br label %._crit_edge

._crit_edge:                                      ; preds = %._crit_edge.loopexit, %.preheader24
  %15 = phi ptr [ %.pre, %._crit_edge.loopexit ], [ %6, %.preheader24 ]
  tail call void @free(ptr noundef %15) #18
  br label %16

16:                                               ; preds = %._crit_edge, %1
  %17 = getelementptr inbounds nuw i8, ptr %4, i64 104
  %18 = load ptr, ptr %17, align 8, !tbaa !72
  %.not22 = icmp eq ptr %18, null
  br i1 %.not22, label %27, label %.preheader

.preheader:                                       ; preds = %16
  %19 = getelementptr inbounds nuw i8, ptr %4, i64 82
  %20 = load i16, ptr %19, align 2, !tbaa !109
  %.not30 = icmp eq i16 %20, 0
  br i1 %.not30, label %._crit_edge28, label %.lr.ph27

.lr.ph27:                                         ; preds = %.preheader, %.lr.ph27
  %indvars.iv32 = phi i64 [ %indvars.iv.next33, %.lr.ph27 ], [ 0, %.preheader ]
  %21 = load ptr, ptr %17, align 8, !tbaa !72
  %22 = getelementptr inbounds nuw %struct.cffile, ptr %21, i64 %indvars.iv32, i32 5
  tail call void @archive_string_free(ptr noundef nonnull %22) #18
  %indvars.iv.next33 = add nuw nsw i64 %indvars.iv32, 1
  %23 = load i16, ptr %19, align 2, !tbaa !109
  %24 = zext i16 %23 to i64
  %25 = icmp samesign ult i64 %indvars.iv.next33, %24
  br i1 %25, label %.lr.ph27, label %._crit_edge28.loopexit, !llvm.loop !110

._crit_edge28.loopexit:                           ; preds = %.lr.ph27
  %.pre35 = load ptr, ptr %17, align 8, !tbaa !72
  br label %._crit_edge28

._crit_edge28:                                    ; preds = %._crit_edge28.loopexit, %.preheader
  %26 = phi ptr [ %.pre35, %._crit_edge28.loopexit ], [ %18, %.preheader ]
  tail call void @free(ptr noundef %26) #18
  br label %27

27:                                               ; preds = %._crit_edge28, %16
  %28 = getelementptr inbounds nuw i8, ptr %4, i64 384
  %29 = load i8, ptr %28, align 8, !tbaa !111
  %.not23 = icmp eq i8 %29, 0
  br i1 %.not23, label %33, label %30

30:                                               ; preds = %27
  %31 = getelementptr inbounds nuw i8, ptr %4, i64 272
  %32 = tail call i32 @cm_zlib_inflateEnd(ptr noundef nonnull %31) #18
  br label %33

33:                                               ; preds = %30, %27
  %34 = getelementptr inbounds nuw i8, ptr %4, i64 440
  %35 = load ptr, ptr %34, align 8, !tbaa !112
  %36 = icmp eq ptr %35, null
  br i1 %36, label %lzx_decode_free.exit, label %37

37:                                               ; preds = %33
  %38 = getelementptr inbounds nuw i8, ptr %35, i64 16
  %39 = load ptr, ptr %38, align 8, !tbaa !113
  tail call void @free(ptr noundef %39) #18
  %40 = load ptr, ptr %34, align 8, !tbaa !112
  %41 = getelementptr inbounds nuw i8, ptr %40, i64 96
  %42 = load ptr, ptr %41, align 8, !tbaa !119
  tail call void @free(ptr noundef %42) #18
  %43 = load ptr, ptr %34, align 8, !tbaa !112
  %44 = getelementptr inbounds nuw i8, ptr %43, i64 192
  %45 = load ptr, ptr %44, align 8, !tbaa !120
  tail call void @free(ptr noundef %45) #18
  %46 = getelementptr inbounds nuw i8, ptr %43, i64 216
  %47 = load ptr, ptr %46, align 8, !tbaa !121
  tail call void @free(ptr noundef %47) #18
  %48 = load ptr, ptr %34, align 8, !tbaa !112
  %49 = getelementptr inbounds nuw i8, ptr %48, i64 504
  %50 = load ptr, ptr %49, align 8, !tbaa !120
  tail call void @free(ptr noundef %50) #18
  %51 = getelementptr inbounds nuw i8, ptr %48, i64 528
  %52 = load ptr, ptr %51, align 8, !tbaa !121
  tail call void @free(ptr noundef %52) #18
  %53 = load ptr, ptr %34, align 8, !tbaa !112
  %54 = getelementptr inbounds nuw i8, ptr %53, i64 400
  %55 = load ptr, ptr %54, align 8, !tbaa !120
  tail call void @free(ptr noundef %55) #18
  %56 = getelementptr inbounds nuw i8, ptr %53, i64 424
  %57 = load ptr, ptr %56, align 8, !tbaa !121
  tail call void @free(ptr noundef %57) #18
  %58 = load ptr, ptr %34, align 8, !tbaa !112
  %59 = getelementptr inbounds nuw i8, ptr %58, i64 296
  %60 = load ptr, ptr %59, align 8, !tbaa !120
  tail call void @free(ptr noundef %60) #18
  %61 = getelementptr inbounds nuw i8, ptr %58, i64 320
  %62 = load ptr, ptr %61, align 8, !tbaa !121
  tail call void @free(ptr noundef %62) #18
  %63 = load ptr, ptr %34, align 8, !tbaa !112
  tail call void @free(ptr noundef %63) #18
  store ptr null, ptr %34, align 8, !tbaa !112
  br label %lzx_decode_free.exit

lzx_decode_free.exit:                             ; preds = %33, %37
  %64 = getelementptr inbounds nuw i8, ptr %4, i64 120
  tail call void @archive_wstring_free(ptr noundef nonnull %64) #18
  %65 = getelementptr inbounds nuw i8, ptr %4, i64 160
  %66 = load ptr, ptr %65, align 8, !tbaa !122
  tail call void @free(ptr noundef %66) #18
  tail call void @free(ptr noundef nonnull %4) #18
  %67 = load ptr, ptr %2, align 8, !tbaa !11
  store ptr null, ptr %67, align 8, !tbaa !29
  ret i32 0
}